target datalayout = "e-m:e-p270:32:32-p271:32:32-p272:64:64-i64:64-i128:128-f80:128-n8:16:32:64-S128"
target triple = "x86_64-pc-linux-gnu"

%struct.cli_clamav_intel = type { ptr, ptr, ptr, i32, i32, i32, i32, i64, ptr, %union.pthread_mutex_t }
%union.pthread_mutex_t = type { %struct.__pthread_mutex_s }
%struct.__pthread_mutex_s = type { i32, i32, i32, i32, i32, i16, i16, %struct.__pthread_internal_list }
%struct.__pthread_internal_list = type { ptr, ptr }
%struct.cli_flagged_sample = type { ptr, [16 x i8], i32, i32, ptr, ptr, ptr }
%struct.cli_stats_sections = type { i64, ptr }
%struct.cli_section_hash = type { [16 x i8], i64 }

@.str.13 = private unnamed_addr constant [64 x i8] c"clamav_stats_remove_sample: locking mutex failed (err: %d): %s\0A\00", align 1
@.str.14 = private unnamed_addr constant [66 x i8] c"clamav_stats_remove_sample: unlocking mutex failed (err: %d): %s\0A\00", align 1

; Function Attrs: nounwind uwtable
define void @free_sample(ptr noundef %0) #0 {
  %2 = alloca ptr, align 8
  %3 = alloca i64, align 8
  store ptr %0, ptr %2, align 8
  %4 = load ptr, ptr %2, align 8
  %5 = getelementptr inbounds %struct.cli_flagged_sample, ptr %4, i32 0, i32 0
  %6 = load ptr, ptr %5, align 8
  %7 = icmp ne ptr %6, null
  br i1 %7, label %8, label %31

8:                                                ; preds = %1
  store i64 0, ptr %3, align 8
  br label %9

9:                                                ; preds = %24, %8
  %10 = load ptr, ptr %2, align 8
  %11 = getelementptr inbounds %struct.cli_flagged_sample, ptr %10, i32 0, i32 0
  %12 = load ptr, ptr %11, align 8
  %13 = load i64, ptr %3, align 8
  %14 = getelementptr inbounds ptr, ptr %12, i64 %13
  %15 = load ptr, ptr %14, align 8
  %16 = icmp ne ptr %15, null
  br i1 %16, label %17, label %27

17:                                               ; preds = %9
  %18 = load ptr, ptr %2, align 8
  %19 = getelementptr inbounds %struct.cli_flagged_sample, ptr %18, i32 0, i32 0
  %20 = load ptr, ptr %19, align 8
  %21 = load i64, ptr %3, align 8
  %22 = getelementptr inbounds ptr, ptr %20, i64 %21
  %23 = load ptr, ptr %22, align 8
  call void @free(ptr noundef %23) #7
  br label %24

24:                                               ; preds = %17
  %25 = load i64, ptr %3, align 8
  %26 = add i64 %25, 1
  store i64 %26, ptr %3, align 8
  br label %9

27:                                               ; preds = %9
  %28 = load ptr, ptr %2, align 8
  %29 = getelementptr inbounds %struct.cli_flagged_sample, ptr %28, i32 0, i32 0
  %30 = load ptr, ptr %29, align 8
  call void @free(ptr noundef %30) #7
  br label %31

31:                                               ; preds = %27, %1
  %32 = load ptr, ptr %2, align 8
  %33 = getelementptr inbounds %struct.cli_flagged_sample, ptr %32, i32 0, i32 4
  %34 = load ptr, ptr %33, align 8
  %35 = icmp ne ptr %34, null
  br i1 %35, label %36, label %52

36:                                               ; preds = %31
  %37 = load ptr, ptr %2, align 8
  %38 = getelementptr inbounds %struct.cli_flagged_sample, ptr %37, i32 0, i32 4
  %39 = load ptr, ptr %38, align 8
  %40 = getelementptr inbounds %struct.cli_stats_sections, ptr %39, i32 0, i32 0
  %41 = load i64, ptr %40, align 8
  %42 = icmp ne i64 %41, 0
  br i1 %42, label %43, label %52

43:                                               ; preds = %36
  %44 = load ptr, ptr %2, align 8
  %45 = getelementptr inbounds %struct.cli_flagged_sample, ptr %44, i32 0, i32 4
  %46 = load ptr, ptr %45, align 8
  %47 = getelementptr inbounds %struct.cli_stats_sections, ptr %46, i32 0, i32 1
  %48 = load ptr, ptr %47, align 8
  call void @free(ptr noundef %48) #7
  %49 = load ptr, ptr %2, align 8
  %50 = getelementptr inbounds %struct.cli_flagged_sample, ptr %49, i32 0, i32 4
  %51 = load ptr, ptr %50, align 8
  call void @free(ptr noundef %51) #7
  br label %52

52:                                               ; preds = %43, %36, %31
  %53 = load ptr, ptr %2, align 8
  call void @free(ptr noundef %53) #7
  ret void
}

; Function Attrs: nounwind uwtable
define internal ptr @find_sample(ptr noundef %0, ptr noundef %1, ptr noundef %2, i64 noundef %3, ptr noundef %4) #0 {
  %6 = alloca ptr, align 8
  %7 = alloca ptr, align 8
  %8 = alloca ptr, align 8
  %9 = alloca ptr, align 8
  %10 = alloca i64, align 8
  %11 = alloca ptr, align 8
  %12 = alloca ptr, align 8
  %13 = alloca i64, align 8
  %14 = alloca i32, align 4
  store ptr %0, ptr %7, align 8
  store ptr %1, ptr %8, align 8
  store ptr %2, ptr %9, align 8
  store i64 %3, ptr %10, align 8
  store ptr %4, ptr %11, align 8
  %15 = load ptr, ptr %7, align 8
  %16 = getelementptr inbounds %struct.cli_clamav_intel, ptr %15, i32 0, i32 2
  %17 = load ptr, ptr %16, align 8
  store ptr %17, ptr %12, align 8
  br label %18

18:                                               ; preds = %150, %5
  %19 = load ptr, ptr %12, align 8
  %20 = icmp ne ptr %19, null
  br i1 %20, label %21, label %154

21:                                               ; preds = %18
  store i32 0, ptr %14, align 4
  %22 = load ptr, ptr %12, align 8
  %23 = getelementptr inbounds %struct.cli_flagged_sample, ptr %22, i32 0, i32 2
  %24 = load i32, ptr %23, align 8
  %25 = zext i32 %24 to i64
  %26 = load i64, ptr %10, align 8
  %27 = icmp ne i64 %25, %26
  br i1 %27, label %28, label %29

28:                                               ; preds = %21
  br label %150

29:                                               ; preds = %21
  %30 = load ptr, ptr %12, align 8
  %31 = getelementptr inbounds %struct.cli_flagged_sample, ptr %30, i32 0, i32 1
  %32 = getelementptr inbounds [16 x i8], ptr %31, i64 0, i64 0
  %33 = load ptr, ptr %9, align 8
  %34 = call i32 @memcmp(ptr noundef %32, ptr noundef %33, i64 noundef 16) #10
  %35 = icmp ne i32 %34, 0
  br i1 %35, label %36, label %37

36:                                               ; preds = %29
  br label %150

37:                                               ; preds = %29
  %38 = load ptr, ptr %8, align 8
  %39 = icmp ne ptr %38, null
  br i1 %39, label %42, label %40

40:                                               ; preds = %37
  %41 = load ptr, ptr %12, align 8
  store ptr %41, ptr %6, align 8
  br label %155

42:                                               ; preds = %37
  %43 = load ptr, ptr %11, align 8
  %44 = icmp ne ptr %43, null
  br i1 %44, label %45, label %119

45:                                               ; preds = %42
  %46 = load ptr, ptr %12, align 8
  %47 = getelementptr inbounds %struct.cli_flagged_sample, ptr %46, i32 0, i32 4
  %48 = load ptr, ptr %47, align 8
  %49 = icmp ne ptr %48, null
  br i1 %49, label %50, label %119

50:                                               ; preds = %45
  %51 = load ptr, ptr %11, align 8
  %52 = getelementptr inbounds %struct.cli_stats_sections, ptr %51, i32 0, i32 0
  %53 = load i64, ptr %52, align 8
  %54 = load ptr, ptr %12, align 8
  %55 = getelementptr inbounds %struct.cli_flagged_sample, ptr %54, i32 0, i32 4
  %56 = load ptr, ptr %55, align 8
  %57 = getelementptr inbounds %struct.cli_stats_sections, ptr %56, i32 0, i32 0
  %58 = load i64, ptr %57, align 8
  %59 = icmp eq i64 %53, %58
  br i1 %59, label %60, label %118

60:                                               ; preds = %50
  store i64 0, ptr %13, align 8
  br label %61

61:                                               ; preds = %107, %60
  %62 = load i64, ptr %13, align 8
  %63 = load ptr, ptr %11, align 8
  %64 = getelementptr inbounds %struct.cli_stats_sections, ptr %63, i32 0, i32 0
  %65 = load i64, ptr %64, align 8
  %66 = icmp ult i64 %62, %65
  br i1 %66, label %67, label %110

67:                                               ; preds = %61
  %68 = load ptr, ptr %11, align 8
  %69 = getelementptr inbounds %struct.cli_stats_sections, ptr %68, i32 0, i32 1
  %70 = load ptr, ptr %69, align 8
  %71 = load i64, ptr %13, align 8
  %72 = getelementptr inbounds %struct.cli_section_hash, ptr %70, i64 %71
  %73 = getelementptr inbounds %struct.cli_section_hash, ptr %72, i32 0, i32 1
  %74 = load i64, ptr %73, align 8
  %75 = load ptr, ptr %12, align 8
  %76 = getelementptr inbounds %struct.cli_flagged_sample, ptr %75, i32 0, i32 4
  %77 = load ptr, ptr %76, align 8
  %78 = getelementptr inbounds %struct.cli_stats_sections, ptr %77, i32 0, i32 1
  %79 = load ptr, ptr %78, align 8
  %80 = load i64, ptr %13, align 8
  %81 = getelementptr inbounds %struct.cli_section_hash, ptr %79, i64 %80
  %82 = getelementptr inbounds %struct.cli_section_hash, ptr %81, i32 0, i32 1
  %83 = load i64, ptr %82, align 8
  %84 = icmp eq i64 %74, %83
  br i1 %84, label %85, label %106

85:                                               ; preds = %67
  %86 = load ptr, ptr %11, align 8
  %87 = getelementptr inbounds %struct.cli_stats_sections, ptr %86, i32 0, i32 1
  %88 = load ptr, ptr %87, align 8
  %89 = load i64, ptr %13, align 8
  %90 = getelementptr inbounds %struct.cli_section_hash, ptr %88, i64 %89
  %91 = getelementptr inbounds %struct.cli_section_hash, ptr %90, i32 0, i32 0
  %92 = getelementptr inbounds [16 x i8], ptr %91, i64 0, i64 0
  %93 = load ptr, ptr %12, align 8
  %94 = getelementptr inbounds %struct.cli_flagged_sample, ptr %93, i32 0, i32 4
  %95 = load ptr, ptr %94, align 8
  %96 = getelementptr inbounds %struct.cli_stats_sections, ptr %95, i32 0, i32 1
  %97 = load ptr, ptr %96, align 8
  %98 = load i64, ptr %13, align 8
  %99 = getelementptr inbounds %struct.cli_section_hash, ptr %97, i64 %98
  %100 = getelementptr inbounds %struct.cli_section_hash, ptr %99, i32 0, i32 0
  %101 = getelementptr inbounds [16 x i8], ptr %100, i64 0, i64 0
  %102 = call i32 @memcmp(ptr noundef %92, ptr noundef %101, i64 noundef 16) #10
  %103 = icmp ne i32 %102, 0
  br i1 %103, label %104, label %105

104:                                              ; preds = %85
  br label %110

105:                                              ; preds = %85
  br label %106

106:                                              ; preds = %105, %67
  br label %107

107:                                              ; preds = %106
  %108 = load i64, ptr %13, align 8
  %109 = add i64 %108, 1
  store i64 %109, ptr %13, align 8
  br label %61

110:                                              ; preds = %104, %61
  %111 = load i64, ptr %13, align 8
  %112 = load ptr, ptr %11, align 8
  %113 = getelementptr inbounds %struct.cli_stats_sections, ptr %112, i32 0, i32 0
  %114 = load i64, ptr %113, align 8
  %115 = icmp eq i64 %111, %114
  br i1 %115, label %116, label %117

116:                                              ; preds = %110
  store i32 1, ptr %14, align 4
  br label %117

117:                                              ; preds = %116, %110
  br label %118

118:                                              ; preds = %117, %50
  br label %120

119:                                              ; preds = %45, %42
  store i32 1, ptr %14, align 4
  br label %120

120:                                              ; preds = %119, %118
  %121 = load i32, ptr %14, align 4
  %122 = icmp ne i32 %121, 0
  br i1 %122, label %123, label %149

123:                                              ; preds = %120
  store i64 0, ptr %13, align 8
  br label %124

124:                                              ; preds = %145, %123
  %125 = load ptr, ptr %12, align 8
  %126 = getelementptr inbounds %struct.cli_flagged_sample, ptr %125, i32 0, i32 0
  %127 = load ptr, ptr %126, align 8
  %128 = load i64, ptr %13, align 8
  %129 = getelementptr inbounds ptr, ptr %127, i64 %128
  %130 = load ptr, ptr %129, align 8
  %131 = icmp ne ptr %130, null
  br i1 %131, label %132, label %148

132:                                              ; preds = %124
  %133 = load ptr, ptr %12, align 8
  %134 = getelementptr inbounds %struct.cli_flagged_sample, ptr %133, i32 0, i32 0
  %135 = load ptr, ptr %134, align 8
  %136 = load i64, ptr %13, align 8
  %137 = getelementptr inbounds ptr, ptr %135, i64 %136
  %138 = load ptr, ptr %137, align 8
  %139 = load ptr, ptr %8, align 8
  %140 = call i32 @strcmp(ptr noundef %138, ptr noundef %139) #10
  %141 = icmp ne i32 %140, 0
  br i1 %141, label %144, label %142

142:                                              ; preds = %132
  %143 = load ptr, ptr %12, align 8
  store ptr %143, ptr %6, align 8
  br label %155

144:                                              ; preds = %132
  br label %145

145:                                              ; preds = %144
  %146 = load i64, ptr %13, align 8
  %147 = add i64 %146, 1
  store i64 %147, ptr %13, align 8
  br label %124

148:                                              ; preds = %124
  br label %149

149:                                              ; preds = %148, %120
  br label %150

150:                                              ; preds = %149, %36, %28
  %151 = load ptr, ptr %12, align 8
  %152 = getelementptr inbounds %struct.cli_flagged_sample, ptr %151, i32 0, i32 6
  %153 = load ptr, ptr %152, align 8
  store ptr %153, ptr %12, align 8
  br label %18

154:                                              ; preds = %18
  store ptr null, ptr %6, align 8
  br label %155

155:                                              ; preds = %154, %142, %40
  %156 = load ptr, ptr %6, align 8
  ret ptr %156
}

; Function Attrs: nounwind uwtable
define void @clamav_stats_remove_sample(ptr noundef %0, ptr noundef %1, i64 noundef %2, ptr noundef %3) #0 {
  %5 = alloca ptr, align 8
  %6 = alloca ptr, align 8
  %7 = alloca i64, align 8
  %8 = alloca ptr, align 8
  %9 = alloca ptr, align 8
  %10 = alloca ptr, align 8
  %11 = alloca i32, align 4
  store ptr %0, ptr %5, align 8
  store ptr %1, ptr %6, align 8
  store i64 %2, ptr %7, align 8
  store ptr %3, ptr %8, align 8
  %12 = load ptr, ptr %8, align 8
  store ptr %12, ptr %9, align 8
  %13 = load ptr, ptr %9, align 8
  %14 = icmp ne ptr %13, null
  br i1 %14, label %16, label %15

15:                                               ; preds = %4
  br label %88

16:                                               ; preds = %4
  %17 = load ptr, ptr %9, align 8
  %18 = getelementptr inbounds %struct.cli_clamav_intel, ptr %17, i32 0, i32 9
  %19 = call i32 @pthread_mutex_lock(ptr noundef %18) #7
  store i32 %19, ptr %11, align 4
  %20 = load i32, ptr %11, align 4
  %21 = icmp ne i32 %20, 0
  br i1 %21, label %22, label %26

22:                                               ; preds = %16
  %23 = load i32, ptr %11, align 4
  %24 = load i32, ptr %11, align 4
  %25 = call ptr @strerror(i32 noundef %24) #7
  call void (ptr, ...) @cli_warnmsg(ptr noundef @.str.13, i32 noundef %23, ptr noundef %25)
  br label %88

26:                                               ; preds = %16
  br label %27

27:                                               ; preds = %72, %26
  %28 = load ptr, ptr %9, align 8
  %29 = load ptr, ptr %5, align 8
  %30 = load ptr, ptr %6, align 8
  %31 = load i64, ptr %7, align 8
  %32 = call ptr @find_sample(ptr noundef %28, ptr noundef %29, ptr noundef %30, i64 noundef %31, ptr noundef null)
  store ptr %32, ptr %10, align 8
  %33 = icmp ne ptr %32, null
  br i1 %33, label %34, label %78

34:                                               ; preds = %27
  %35 = load ptr, ptr %10, align 8
  %36 = getelementptr inbounds %struct.cli_flagged_sample, ptr %35, i32 0, i32 5
  %37 = load ptr, ptr %36, align 8
  %38 = icmp ne ptr %37, null
  br i1 %38, label %39, label %47

39:                                               ; preds = %34
  %40 = load ptr, ptr %10, align 8
  %41 = getelementptr inbounds %struct.cli_flagged_sample, ptr %40, i32 0, i32 6
  %42 = load ptr, ptr %41, align 8
  %43 = load ptr, ptr %10, align 8
  %44 = getelementptr inbounds %struct.cli_flagged_sample, ptr %43, i32 0, i32 5
  %45 = load ptr, ptr %44, align 8
  %46 = getelementptr inbounds %struct.cli_flagged_sample, ptr %45, i32 0, i32 6
  store ptr %42, ptr %46, align 8
  br label %47

47:                                               ; preds = %39, %34
  %48 = load ptr, ptr %10, align 8
  %49 = getelementptr inbounds %struct.cli_flagged_sample, ptr %48, i32 0, i32 6
  %50 = load ptr, ptr %49, align 8
  %51 = icmp ne ptr %50, null
  br i1 %51, label %52, label %60

52:                                               ; preds = %47
  %53 = load ptr, ptr %10, align 8
  %54 = getelementptr inbounds %struct.cli_flagged_sample, ptr %53, i32 0, i32 5
  %55 = load ptr, ptr %54, align 8
  %56 = load ptr, ptr %10, align 8
  %57 = getelementptr inbounds %struct.cli_flagged_sample, ptr %56, i32 0, i32 6
  %58 = load ptr, ptr %57, align 8
  %59 = getelementptr inbounds %struct.cli_flagged_sample, ptr %58, i32 0, i32 5
  store ptr %55, ptr %59, align 8
  br label %60

60:                                               ; preds = %52, %47
  %61 = load ptr, ptr %10, align 8
  %62 = load ptr, ptr %9, align 8
  %63 = getelementptr inbounds %struct.cli_clamav_intel, ptr %62, i32 0, i32 2
  %64 = load ptr, ptr %63, align 8
  %65 = icmp eq ptr %61, %64
  br i1 %65, label %66, label %72

66:                                               ; preds = %60
  %67 = load ptr, ptr %10, align 8
  %68 = getelementptr inbounds %struct.cli_flagged_sample, ptr %67, i32 0, i32 6
  %69 = load ptr, ptr %68, align 8
  %70 = load ptr, ptr %9, align 8
  %71 = getelementptr inbounds %struct.cli_clamav_intel, ptr %70, i32 0, i32 2
  store ptr %69, ptr %71, align 8
  br label %72

72:                                               ; preds = %66, %60
  %73 = load ptr, ptr %10, align 8
  call void @free_sample(ptr noundef %73)
  %74 = load ptr, ptr %9, align 8
  %75 = getelementptr inbounds %struct.cli_clamav_intel, ptr %74, i32 0, i32 3
  %76 = load i32, ptr %75, align 8
  %77 = add i32 %76, -1
  store i32 %77, ptr %75, align 8
  br label %27

78:                                               ; preds = %27
  %79 = load ptr, ptr %9, align 8
  %80 = getelementptr inbounds %struct.cli_clamav_intel, ptr %79, i32 0, i32 9
  %81 = call i32 @pthread_mutex_unlock(ptr noundef %80) #7
  store i32 %81, ptr %11, align 4
  %82 = load i32, ptr %11, align 4
  %83 = icmp ne i32 %82, 0
  br i1 %83, label %84, label %88

84:                                               ; preds = %78
  %85 = load i32, ptr %11, align 4
  %86 = load i32, ptr %11, align 4
  %87 = call ptr @strerror(i32 noundef %86) #7
  call void (ptr, ...) @cli_warnmsg(ptr noundef @.str.14, i32 noundef %85, ptr noundef %87)
  br label %88

88:                                               ; preds = %84, %78, %22, %15
  ret void
}