; Function Attrs: nounwind uwtable
define void @clamav_stats_remove_sample(ptr noundef readonly %0, ptr noundef readonly captures(none) %1, i64 noundef %2, ptr noundef %3) local_unnamed_addr #0 {
  %.not = icmp eq ptr %3, null
  br i1 %.not, label %67, label %5

5:                                                ; preds = %4
  %6 = getelementptr inbounds nuw i8, ptr %3, i64 56
  %7 = tail call i32 @pthread_mutex_lock(ptr noundef nonnull %6) #13
  %.not30 = icmp eq i32 %7, 0
  br i1 %.not30, label %.preheader, label %10

.preheader:                                       ; preds = %5
  %8 = getelementptr inbounds nuw i8, ptr %3, i64 16
  %.03563.i47 = load ptr, ptr %8, align 8
  %.not64.i48 = icmp eq ptr %.03563.i47, null
  br i1 %.not64.i48, label %find_sample.exit.thread, label %.lr.ph68.i.lr.ph

.lr.ph68.i.lr.ph:                                 ; preds = %.preheader
  %.not43.i = icmp eq ptr %0, null
  %9 = getelementptr inbounds nuw i8, ptr %3, i64 24
  br label %.lr.ph68.i

10:                                               ; preds = %5
  %11 = tail call ptr @strerror(i32 noundef %7) #13
  tail call void (ptr, ...) @cli_warnmsg(ptr noundef nonnull @.str.13, i32 noundef %7, ptr noundef %11) #13
  br label %67

.lr.ph68.i:                                       ; preds = %.lr.ph68.i.lr.ph, %free_sample.exit
  %.03563.i49 = phi ptr [ %.03563.i47, %.lr.ph68.i.lr.ph ], [ %.03563.i, %free_sample.exit ]
  br i1 %.not43.i, label %.lr.ph68.split.us.i, label %.lr.ph68.split.split.us.i

.lr.ph68.split.us.i:                              ; preds = %.lr.ph68.i, %.critedge.us.i
  %.03565.us.i = phi ptr [ %.035.us.i, %.critedge.us.i ], [ %.03563.i49, %.lr.ph68.i ]
  %12 = getelementptr inbounds nuw i8, ptr %.03565.us.i, i64 24
  %13 = load i32, ptr %12, align 8
  %14 = zext i32 %13 to i64
  %.not41.us.i = icmp eq i64 %2, %14
  br i1 %.not41.us.i, label %15, label %.critedge.us.i

15:                                               ; preds = %.lr.ph68.split.us.i
  %16 = getelementptr inbounds nuw i8, ptr %.03565.us.i, i64 8
  %bcmp.us.i = tail call i32 @bcmp(ptr noundef nonnull dereferenceable(16) %16, ptr noundef nonnull readonly dereferenceable(16) %1, i64 16)
  %.not42.us.i = icmp eq i32 %bcmp.us.i, 0
  br i1 %.not42.us.i, label %find_sample.exit.thread38, label %.critedge.us.i

.critedge.us.i:                                   ; preds = %15, %.lr.ph68.split.us.i
  %17 = getelementptr inbounds nuw i8, ptr %.03565.us.i, i64 48
  %.035.us.i = load ptr, ptr %17, align 8
  %.not.us.i = icmp eq ptr %.035.us.i, null
  br i1 %.not.us.i, label %find_sample.exit.thread, label %.lr.ph68.split.us.i

.lr.ph68.split.split.us.i:                        ; preds = %.lr.ph68.i, %.critedge.us78.i
  %.03565.us74.i = phi ptr [ %.035.us79.i, %.critedge.us78.i ], [ %.03563.i49, %.lr.ph68.i ]
  %18 = getelementptr inbounds nuw i8, ptr %.03565.us74.i, i64 24
  %19 = load i32, ptr %18, align 8
  %20 = zext i32 %19 to i64
  %.not41.us75.i = icmp eq i64 %2, %20
  br i1 %.not41.us75.i, label %21, label %.critedge.us78.i

21:                                               ; preds = %.lr.ph68.split.split.us.i
  %22 = getelementptr inbounds nuw i8, ptr %.03565.us74.i, i64 8
  %bcmp.us76.i = tail call i32 @bcmp(ptr noundef nonnull dereferenceable(16) %22, ptr noundef nonnull readonly dereferenceable(16) %1, i64 16)
  %.not42.us77.i = icmp eq i32 %bcmp.us76.i, 0
  br i1 %.not42.us77.i, label %.critedge52.us.i, label %.critedge.us78.i

.critedge52.us.i:                                 ; preds = %21
  %23 = load ptr, ptr %.03565.us74.i, align 8
  %24 = load ptr, ptr %23, align 8
  %.not4960.us.i = icmp eq ptr %24, null
  br i1 %.not4960.us.i, label %.critedge.us78.i, label %.lr.ph62.us.i

25:                                               ; preds = %.lr.ph62.us.i
  %26 = add i64 %.161.us.i, 1
  %27 = getelementptr inbounds ptr, ptr %23, i64 %26
  %28 = load ptr, ptr %27, align 8
  %.not49.us.i = icmp eq ptr %28, null
  br i1 %.not49.us.i, label %.critedge.us78.i, label %.lr.ph62.us.i

.lr.ph62.us.i:                                    ; preds = %.critedge52.us.i, %25
  %29 = phi ptr [ %28, %25 ], [ %24, %.critedge52.us.i ]
  %.161.us.i = phi i64 [ %26, %25 ], [ 0, %.critedge52.us.i ]
  %30 = tail call i32 @strcmp(ptr noundef nonnull dereferenceable(1) %29, ptr noundef nonnull readonly dereferenceable(1) %0) #16
  %.not50.us.i = icmp eq i32 %30, 0
  br i1 %.not50.us.i, label %find_sample.exit.thread38, label %25

.critedge.us78.i:                                 ; preds = %25, %.critedge52.us.i, %21, %.lr.ph68.split.split.us.i
  %31 = getelementptr inbounds nuw i8, ptr %.03565.us74.i, i64 48
  %.035.us79.i = load ptr, ptr %31, align 8
  %.not.us80.i = icmp eq ptr %.035.us79.i, null
  br i1 %.not.us80.i, label %find_sample.exit.thread, label %.lr.ph68.split.split.us.i

find_sample.exit.thread38:                        ; preds = %15, %.lr.ph62.us.i
  %.03556.i41 = phi ptr [ %.03565.us74.i, %.lr.ph62.us.i ], [ %.03565.us.i, %15 ]
  %32 = getelementptr inbounds nuw i8, ptr %.03556.i41, i64 40
  %33 = load ptr, ptr %32, align 8
  %.not33 = icmp eq ptr %33, null
  %.phi.trans.insert = getelementptr inbounds nuw i8, ptr %.03556.i41, i64 48
  %.pre = load ptr, ptr %.phi.trans.insert, align 8
  br i1 %.not33, label %find_sample.exit.thread38._crit_edge, label %34

34:                                               ; preds = %find_sample.exit.thread38
  %35 = getelementptr inbounds nuw i8, ptr %33, i64 48
  store ptr %.pre, ptr %35, align 8
  br label %find_sample.exit.thread38._crit_edge

find_sample.exit.thread38._crit_edge:             ; preds = %find_sample.exit.thread38, %34
  %36 = getelementptr inbounds nuw i8, ptr %.03556.i41, i64 48
  %.not34 = icmp eq ptr %.pre, null
  br i1 %.not34, label %40, label %37

37:                                               ; preds = %find_sample.exit.thread38._crit_edge
  %38 = load ptr, ptr %32, align 8
  %39 = getelementptr inbounds nuw i8, ptr %.pre, i64 40
  store ptr %38, ptr %39, align 8
  br label %40

40:                                               ; preds = %37, %find_sample.exit.thread38._crit_edge
  %41 = load ptr, ptr %8, align 8
  %42 = icmp eq ptr %.03556.i41, %41
  br i1 %42, label %43, label %45

43:                                               ; preds = %40
  %44 = load ptr, ptr %36, align 8
  store ptr %44, ptr %8, align 8
  br label %45

45:                                               ; preds = %43, %40
  %46 = load ptr, ptr %.03556.i41, align 8
  %.not.i = icmp eq ptr %46, null
  br i1 %.not.i, label %53, label %.preheader.i

.preheader.i:                                     ; preds = %45
  %47 = load ptr, ptr %46, align 8
  %.not1316.i = icmp eq ptr %47, null
  br i1 %.not1316.i, label %._crit_edge.i, label %.lr.ph.i

.lr.ph.i:                                         ; preds = %.preheader.i, %.lr.ph.i
  %48 = phi ptr [ %52, %.lr.ph.i ], [ %47, %.preheader.i ]
  %.017.i = phi i64 [ %49, %.lr.ph.i ], [ 0, %.preheader.i ]
  tail call void @free(ptr noundef nonnull %48) #13
  %49 = add i64 %.017.i, 1
  %50 = load ptr, ptr %.03556.i41, align 8
  %51 = getelementptr inbounds ptr, ptr %50, i64 %49
  %52 = load ptr, ptr %51, align 8
  %.not13.i = icmp eq ptr %52, null
  br i1 %.not13.i, label %._crit_edge.i, label %.lr.ph.i

._crit_edge.i:                                    ; preds = %.lr.ph.i, %.preheader.i
  %.lcssa.i = phi ptr [ %46, %.preheader.i ], [ %50, %.lr.ph.i ]
  tail call void @free(ptr noundef nonnull %.lcssa.i) #13
  br label %53

53:                                               ; preds = %._crit_edge.i, %45
  %54 = getelementptr inbounds nuw i8, ptr %.03556.i41, i64 32
  %55 = load ptr, ptr %54, align 8
  %.not14.i = icmp eq ptr %55, null
  br i1 %.not14.i, label %free_sample.exit, label %56

56:                                               ; preds = %53
  %57 = load i64, ptr %55, align 8
  %.not15.i = icmp eq i64 %57, 0
  br i1 %.not15.i, label %free_sample.exit, label %58

58:                                               ; preds = %56
  %59 = getelementptr inbounds nuw i8, ptr %55, i64 8
  %60 = load ptr, ptr %59, align 8
  tail call void @free(ptr noundef %60) #13
  %61 = load ptr, ptr %54, align 8
  tail call void @free(ptr noundef %61) #13
  br label %free_sample.exit

free_sample.exit:                                 ; preds = %53, %56, %58
  tail call void @free(ptr noundef nonnull %.03556.i41) #13
  %62 = load i32, ptr %9, align 8
  %63 = add i32 %62, -1
  store i32 %63, ptr %9, align 8
  %.03563.i = load ptr, ptr %8, align 8
  %.not64.i = icmp eq ptr %.03563.i, null
  br i1 %.not64.i, label %find_sample.exit.thread, label %.lr.ph68.i

find_sample.exit.thread:                          ; preds = %free_sample.exit, %.critedge.us78.i, %.critedge.us.i, %.preheader
  %64 = tail call i32 @pthread_mutex_unlock(ptr noundef nonnull %6) #13
  %.not32 = icmp eq i32 %64, 0
  br i1 %.not32, label %67, label %65

65:                                               ; preds = %find_sample.exit.thread
  %66 = tail call ptr @strerror(i32 noundef %64) #13
  tail call void (ptr, ...) @cli_warnmsg(ptr noundef nonnull @.str.14, i32 noundef %64, ptr noundef %66) #13
  br label %67

67:                                               ; preds = %4, %65, %find_sample.exit.thread, %10
  ret void
}